; Function Attrs: mustprogress uwtable
define void @_ZN2cv4UMatC2EiiiNS_14UMatUsageFlagsE(ptr noundef nonnull align 8 dereferenceable(80) initializes((0, 28), (32, 48)) %0, i32 noundef %1, i32 noundef %2, i32 noundef %3, i32 noundef %4) unnamed_addr #4 align 2 {
  %6 = alloca [2 x i32], align 4
  store i32 1124007936, ptr %0, align 8, !tbaa !43
  %7 = getelementptr inbounds nuw i8, ptr %0, i64 4
  %8 = getelementptr inbounds nuw i8, ptr %0, i64 8
  %9 = getelementptr inbounds nuw i8, ptr %0, i64 24
  tail call void @llvm.memset.p0.i64(ptr noundef nonnull align 4 dereferenceable(20) %7, i8 0, i64 20, i1 false)
  store i32 %4, ptr %9, align 8, !tbaa !50
  %10 = getelementptr inbounds nuw i8, ptr %0, i64 32
  %11 = getelementptr inbounds nuw i8, ptr %0, i64 48
  tail call void @llvm.memset.p0.i64(ptr noundef nonnull align 8 dereferenceable(16) %10, i8 0, i64 16, i1 false)
  store ptr %8, ptr %11, align 8, !tbaa !51
  %12 = getelementptr inbounds nuw i8, ptr %0, i64 56
  %13 = getelementptr inbounds nuw i8, ptr %0, i64 64
  store ptr %13, ptr %12, align 8, !tbaa !52
  tail call void @llvm.memset.p0.i64(ptr noundef nonnull align 8 dereferenceable(16) %13, i8 0, i64 16, i1 false)
  call void @llvm.lifetime.start.p0(i64 8, ptr nonnull %6) #25
  store i32 %1, ptr %6, align 4, !tbaa !28
  %14 = getelementptr inbounds nuw i8, ptr %6, i64 4
  store i32 %2, ptr %14, align 4, !tbaa !28
  call void @_ZN2cv4UMat6createEiPKiiNS_14UMatUsageFlagsE(ptr noundef nonnull align 8 dereferenceable(80) %0, i32 noundef 2, ptr noundef nonnull %6, i32 noundef %3, i32 noundef 0)
  call void @llvm.lifetime.end.p0(i64 8, ptr nonnull %6) #25
  ret void
}